; Function Attrs: mustprogress uwtable
define hidden void @_ZNK4cvc58internal7IntegerngEv(ptr dead_on_unwind noalias writable sret(%"class.cvc5::internal::Integer") align 8 %0, ptr noundef nonnull align 8 dereferenceable(16) %1) local_unnamed_addr #0 align 2 personality ptr @__gxx_personality_v0 {
  %3 = alloca %class.__gmp_expr, align 8
  call void @llvm.lifetime.start.p0(i64 16, ptr nonnull %3) #16
  call void @__gmpz_init(ptr noundef nonnull align 8 dereferenceable(16) %3) #16
  %.not.i.i.i.i.i = icmp eq ptr %3, %1
  br i1 %.not.i.i.i.i.i, label %_ZN10__gmp_exprIA1_12__mpz_structS1_EC2I16__gmp_unary_exprIS2_17__gmp_unary_minusEEERKS_IS1_T_E.exit, label %4

4:                                                ; preds = %2
  call void @__gmpz_set(ptr noundef nonnull align 8 dereferenceable(16) %3, ptr noundef nonnull %1)
  br label %_ZN10__gmp_exprIA1_12__mpz_structS1_EC2I16__gmp_unary_exprIS2_17__gmp_unary_minusEEERKS_IS1_T_E.exit

_ZN10__gmp_exprIA1_12__mpz_structS1_EC2I16__gmp_unary_exprIS2_17__gmp_unary_minusEEERKS_IS1_T_E.exit: ; preds = %2, %4
  %5 = getelementptr inbounds nuw i8, ptr %3, i64 4
  %6 = load i32, ptr %5, align 4, !tbaa !11
  %7 = sub nsw i32 0, %6
  store i32 %7, ptr %5, align 4, !tbaa !11
  invoke void @__gmpz_init_set(ptr noundef nonnull align 8 dereferenceable(16) %0, ptr noundef nonnull align 8 dereferenceable(16) %3)
          to label %_ZN4cvc58internal7IntegerC2ERK10__gmp_exprIA1_12__mpz_structS4_E.exit unwind label %11

_ZN4cvc58internal7IntegerC2ERK10__gmp_exprIA1_12__mpz_structS4_E.exit: ; preds = %_ZN10__gmp_exprIA1_12__mpz_structS1_EC2I16__gmp_unary_exprIS2_17__gmp_unary_minusEEERKS_IS1_T_E.exit
  invoke void @__gmpz_clear(ptr noundef nonnull align 8 dereferenceable(16) %3)
          to label %_ZN10__gmp_exprIA1_12__mpz_structS1_ED2Ev.exit unwind label %8

8:                                                ; preds = %_ZN4cvc58internal7IntegerC2ERK10__gmp_exprIA1_12__mpz_structS4_E.exit
  %9 = landingpad { ptr, i32 }
          catch ptr null
  %10 = extractvalue { ptr, i32 } %9, 0
  call void @__clang_call_terminate(ptr %10) #19
  unreachable

_ZN10__gmp_exprIA1_12__mpz_structS1_ED2Ev.exit:   ; preds = %_ZN4cvc58internal7IntegerC2ERK10__gmp_exprIA1_12__mpz_structS4_E.exit
  call void @llvm.lifetime.end.p0(i64 16, ptr nonnull %3) #16
  ret void

11:                                               ; preds = %_ZN10__gmp_exprIA1_12__mpz_structS1_EC2I16__gmp_unary_exprIS2_17__gmp_unary_minusEEERKS_IS1_T_E.exit
  %12 = landingpad { ptr, i32 }
          cleanup
  invoke void @__gmpz_clear(ptr noundef nonnull align 8 dereferenceable(16) %3)
          to label %_ZN10__gmp_exprIA1_12__mpz_structS1_ED2Ev.exit2 unwind label %13

13:                                               ; preds = %11
  %14 = landingpad { ptr, i32 }
          catch ptr null
  %15 = extractvalue { ptr, i32 } %14, 0
  call void @__clang_call_terminate(ptr %15) #19
  unreachable

_ZN10__gmp_exprIA1_12__mpz_structS1_ED2Ev.exit2:  ; preds = %11
  call void @llvm.lifetime.end.p0(i64 16, ptr nonnull %3) #16
  resume { ptr, i32 } %12
}